; Function Attrs: mustprogress nofree norecurse nosync nounwind willreturn memory(argmem: readwrite) uwtable
define noundef nonnull align 8 dereferenceable(16) ptr @_ZN5arrow15BasicDecimal128oRERKS0_(ptr noundef nonnull returned align 8 captures(ret: address, provenance) dereferenceable(16) %0, ptr noundef nonnull readonly align 8 captures(none) dereferenceable(16) %1) local_unnamed_addr #5 align 2 {
  %3 = load i64, ptr %1, align 8, !tbaa !7
  %4 = load i64, ptr %0, align 8, !tbaa !7
  %5 = or i64 %4, %3
  store i64 %5, ptr %0, align 8, !tbaa !7
  %6 = getelementptr inbounds nuw i8, ptr %1, i64 8
  %7 = load i64, ptr %6, align 8, !tbaa !7
  %8 = getelementptr inbounds nuw i8, ptr %0, i64 8
  %9 = load i64, ptr %8, align 8, !tbaa !7
  %10 = or i64 %9, %7
  store i64 %10, ptr %8, align 8, !tbaa !7
  ret ptr %0
}